target datalayout = "e-m:e-p270:32:32-p271:32:32-p272:64:64-i64:64-i128:128-f80:128-n8:16:32:64-S128"
target triple = "x86_64-unknown-linux-gnu"

%struct.CPUArchState = type { [32 x i64], [32 x i64], [512 x i64], i64, i64, i64, i64, i64, i8, i64, i64, i64, [32 x i64], i64, %struct.float_status, i64, i64, i64, i64, i64, i64, i32, i32, i32, i32, i32, i64, i64, i32, i64, i64, ptr, ptr, i8, i64, i64, [8 x i8] }
%struct.float_status = type { i16, i8, i8, i8, i8, i8, i8, i8, i8, i8, i8, i8 }

; Function Attrs: nounwind sspstrong uwtable
define dso_local void @riscv_cpu_set_misa(ptr noundef %env, i32 noundef %mxl, i32 noundef %ext) #0 {
entry:
  %env.addr = alloca ptr, align 8
  %mxl.addr = alloca i32, align 4
  %ext.addr = alloca i32, align 4
  store ptr %env, ptr %env.addr, align 8
  store i32 %mxl, ptr %mxl.addr, align 4
  store i32 %ext, ptr %ext.addr, align 4
  %0 = load i32, ptr %mxl.addr, align 4
  %1 = load ptr, ptr %env.addr, align 8
  %misa_mxl = getelementptr inbounds %struct.CPUArchState, ptr %1, i32 0, i32 21
  store i32 %0, ptr %misa_mxl, align 16
  %2 = load ptr, ptr %env.addr, align 8
  %misa_mxl_max = getelementptr inbounds %struct.CPUArchState, ptr %2, i32 0, i32 22
  store i32 %0, ptr %misa_mxl_max, align 4
  %3 = load i32, ptr %ext.addr, align 4
  %4 = load ptr, ptr %env.addr, align 8
  %misa_ext = getelementptr inbounds %struct.CPUArchState, ptr %4, i32 0, i32 23
  store i32 %3, ptr %misa_ext, align 8
  %5 = load ptr, ptr %env.addr, align 8
  %misa_ext_mask = getelementptr inbounds %struct.CPUArchState, ptr %5, i32 0, i32 24
  store i32 %3, ptr %misa_ext_mask, align 4
  ret void
}