; Function Attrs: mustprogress nofree norecurse nosync nounwind sspstrong willreturn memory(argmem: write) uwtable
define dso_local void @riscv_cpu_set_misa(ptr noundef writeonly captures(none) initializes((5008, 5024)) %env, i32 noundef %mxl, i32 noundef %ext) local_unnamed_addr #1 {
entry:
  %misa_mxl = getelementptr inbounds nuw i8, ptr %env, i64 5008
  store i32 %mxl, ptr %misa_mxl, align 16
  %misa_mxl_max = getelementptr inbounds nuw i8, ptr %env, i64 5012
  store i32 %mxl, ptr %misa_mxl_max, align 4
  %misa_ext = getelementptr inbounds nuw i8, ptr %env, i64 5016
  store i32 %ext, ptr %misa_ext, align 8
  %misa_ext_mask = getelementptr inbounds nuw i8, ptr %env, i64 5020
  store i32 %ext, ptr %misa_ext_mask, align 4
  ret void
}